; Function Attrs: mustprogress nounwind uwtable
define void @_ZN7glslang16HlslParseContext16structArrayCheckERKNS_10TSourceLocERKNS_5TTypeE(ptr noundef nonnull align 8 dereferenceable(2489) %0, ptr nocapture noundef nonnull readnone align 8 dereferenceable(24) %1, ptr nocapture noundef nonnull readonly align 8 dereferenceable(152) %2) local_unnamed_addr #0 align 2 {
  %4 = getelementptr inbounds i8, ptr %2, i64 104
  %5 = load ptr, ptr %4, align 8
  %6 = getelementptr inbounds i8, ptr %5, i64 8
  %7 = getelementptr inbounds i8, ptr %5, i64 16
  %8 = load ptr, ptr %7, align 8
  %9 = load ptr, ptr %6, align 8
  %10 = ptrtoint ptr %8 to i64
  %11 = ptrtoint ptr %9 to i64
  %12 = sub i64 %10, %11
  %13 = lshr exact i64 %12, 5
  %14 = trunc i64 %13 to i32
  %15 = icmp sgt i32 %14, 0
  br i1 %15, label %.lr.ph, label %._crit_edge

.lr.ph:                                           ; preds = %3, %_ZN7glslang16HlslParseContext22arraySizeRequiredCheckERKNS_10TSourceLocERKNS_11TArraySizesE.exit
  %indvars.iv = phi i64 [ %indvars.iv.next, %_ZN7glslang16HlslParseContext22arraySizeRequiredCheckERKNS_10TSourceLocERKNS_11TArraySizesE.exit ], [ 0, %3 ]
  %16 = phi ptr [ %53, %_ZN7glslang16HlslParseContext22arraySizeRequiredCheckERKNS_10TSourceLocERKNS_11TArraySizesE.exit ], [ %9, %3 ]
  %17 = getelementptr inbounds %"struct.glslang::TTypeLoc", ptr %16, i64 %indvars.iv
  %18 = load ptr, ptr %17, align 8
  %19 = load ptr, ptr %18, align 8
  %20 = getelementptr inbounds i8, ptr %19, i64 232
  %21 = load ptr, ptr %20, align 8
  %22 = tail call noundef zeroext i1 %21(ptr noundef nonnull align 8 dereferenceable(152) %18) #24
  br i1 %22, label %23, label %_ZN7glslang16HlslParseContext22arraySizeRequiredCheckERKNS_10TSourceLocERKNS_11TArraySizesE.exit

23:                                               ; preds = %.lr.ph
  %24 = load ptr, ptr %6, align 8
  %25 = getelementptr inbounds %"struct.glslang::TTypeLoc", ptr %24, i64 %indvars.iv, i32 1
  %26 = load ptr, ptr %18, align 8
  %27 = getelementptr inbounds i8, ptr %26, i64 152
  %28 = load ptr, ptr %27, align 8
  %29 = tail call noundef ptr %28(ptr noundef nonnull align 8 dereferenceable(152) %18) #24
  %30 = getelementptr inbounds i8, ptr %29, i64 8
  %31 = load ptr, ptr %30, align 8
  %32 = getelementptr inbounds i8, ptr %31, i64 8
  %33 = load ptr, ptr %32, align 8
  %34 = load i32, ptr %33, align 8
  %35 = icmp eq i32 %34, 0
  br i1 %35, label %_ZNK7glslang11TArraySizes10hasUnsizedEv.exit.thread.i, label %.split.i.i.i

.split.i.i.i:                                     ; preds = %23
  %36 = getelementptr inbounds i8, ptr %31, i64 16
  %37 = load ptr, ptr %36, align 8
  %38 = ptrtoint ptr %37 to i64
  %39 = ptrtoint ptr %33 to i64
  %40 = sub i64 %38, %39
  %41 = lshr exact i64 %40, 4
  %42 = trunc i64 %41 to i32
  %sext.i.i.i = shl i64 %40, 28
  %43 = ashr i64 %sext.i.i.i, 32
  %smax.i.i.i = tail call i32 @llvm.smax.i32(i32 %42, i32 1)
  %wide.trip.count.i.i.i = zext nneg i32 %smax.i.i.i to i64
  br label %_ZNK7glslang17TSmallArrayVector4sizeEv.exit.i.i.i

_ZNK7glslang17TSmallArrayVector4sizeEv.exit.i.i.i: ; preds = %44, %.split.i.i.i
  %indvars.iv.i.i.i = phi i64 [ %indvars.iv.next.i.i.i, %44 ], [ 1, %.split.i.i.i ]
  %exitcond.not.i.i.i = icmp eq i64 %indvars.iv.i.i.i, %wide.trip.count.i.i.i
  br i1 %exitcond.not.i.i.i, label %_ZNK7glslang11TArraySizes10hasUnsizedEv.exit.i, label %44

44:                                               ; preds = %_ZNK7glslang17TSmallArrayVector4sizeEv.exit.i.i.i
  %45 = getelementptr inbounds %"struct.glslang::TArraySize", ptr %33, i64 %indvars.iv.i.i.i
  %46 = load i32, ptr %45, align 8
  %47 = icmp eq i32 %46, 0
  %indvars.iv.next.i.i.i = add nuw nsw i64 %indvars.iv.i.i.i, 1
  br i1 %47, label %_ZNK7glslang11TArraySizes10hasUnsizedEv.exit.i, label %_ZNK7glslang17TSmallArrayVector4sizeEv.exit.i.i.i, !llvm.loop !225

_ZNK7glslang11TArraySizes10hasUnsizedEv.exit.i:   ; preds = %44, %_ZNK7glslang17TSmallArrayVector4sizeEv.exit.i.i.i
  %indvars.iv.i.lcssa.i.i = phi i64 [ %wide.trip.count.i.i.i, %_ZNK7glslang17TSmallArrayVector4sizeEv.exit.i.i.i ], [ %indvars.iv.i.i.i, %44 ]
  %48 = icmp slt i64 %indvars.iv.i.lcssa.i.i, %43
  br i1 %48, label %_ZNK7glslang11TArraySizes10hasUnsizedEv.exit.thread.i, label %_ZN7glslang16HlslParseContext22arraySizeRequiredCheckERKNS_10TSourceLocERKNS_11TArraySizesE.exit

_ZNK7glslang11TArraySizes10hasUnsizedEv.exit.thread.i: ; preds = %_ZNK7glslang11TArraySizes10hasUnsizedEv.exit.i, %23
  %49 = load ptr, ptr %0, align 8
  %50 = getelementptr inbounds i8, ptr %49, i64 344
  %51 = load ptr, ptr %50, align 8
  tail call void (ptr, ptr, ptr, ptr, ptr, ...) %51(ptr noundef nonnull align 8 dereferenceable(1280) %0, ptr noundef nonnull align 8 dereferenceable(24) %25, ptr noundef nonnull @.str.222, ptr noundef nonnull @.str.5, ptr noundef nonnull @.str.5) #24
  br label %_ZN7glslang16HlslParseContext22arraySizeRequiredCheckERKNS_10TSourceLocERKNS_11TArraySizesE.exit

_ZN7glslang16HlslParseContext22arraySizeRequiredCheckERKNS_10TSourceLocERKNS_11TArraySizesE.exit: ; preds = %_ZNK7glslang11TArraySizes10hasUnsizedEv.exit.thread.i, %_ZNK7glslang11TArraySizes10hasUnsizedEv.exit.i, %.lr.ph
  %indvars.iv.next = add nuw nsw i64 %indvars.iv, 1
  %52 = load ptr, ptr %7, align 8
  %53 = load ptr, ptr %6, align 8
  %54 = ptrtoint ptr %52 to i64
  %55 = ptrtoint ptr %53 to i64
  %56 = sub i64 %54, %55
  %sext = shl i64 %56, 27
  %57 = ashr i64 %sext, 32
  %58 = icmp slt i64 %indvars.iv.next, %57
  br i1 %58, label %.lr.ph, label %._crit_edge, !llvm.loop !268

._crit_edge:                                      ; preds = %_ZN7glslang16HlslParseContext22arraySizeRequiredCheckERKNS_10TSourceLocERKNS_11TArraySizesE.exit, %3
  ret void
}